target datalayout = "e-m:e-p270:32:32-p271:32:32-p272:64:64-i64:64-i128:128-f80:128-n8:16:32:64-S128"
target triple = "x86_64-unknown-linux-gnu"

%"struct.node::AssertionInfo" = type { ptr, ptr, ptr }
%"class.node::UDPListener" = type { ptr, ptr }
%"class.node::UDPWrapBase" = type { ptr, ptr }

@_ZZN4node11UDPWrapBase12set_listenerEPNS_11UDPListenerEE4args = internal constant %"struct.node::AssertionInfo" { ptr @.str.3, ptr @.str.4, ptr @.str.5 }, align 8

; Function Attrs: mustprogress nounwind uwtable
define dso_local void @_ZN4node11UDPWrapBase12set_listenerEPNS_11UDPListenerE(ptr noundef nonnull align 8 dereferenceable(16) %this, ptr noundef %listener) #4 align 2 {
entry:
  %this.addr = alloca ptr, align 8
  %listener.addr = alloca ptr, align 8
  store ptr %this, ptr %this.addr, align 8
  store ptr %listener, ptr %listener.addr, align 8
  %this1 = load ptr, ptr %this.addr, align 8
  %listener_ = getelementptr inbounds %"class.node::UDPWrapBase", ptr %this1, i32 0, i32 1
  %0 = load ptr, ptr %listener_, align 8
  %cmp = icmp ne ptr %0, null
  br i1 %cmp, label %if.then, label %if.end

if.then:                                          ; preds = %entry
  %listener_2 = getelementptr inbounds %"class.node::UDPWrapBase", ptr %this1, i32 0, i32 1
  %1 = load ptr, ptr %listener_2, align 8
  %wrap_ = getelementptr inbounds %"class.node::UDPListener", ptr %1, i32 0, i32 1
  store ptr null, ptr %wrap_, align 8
  br label %if.end

if.end:                                           ; preds = %if.then, %entry
  %2 = load ptr, ptr %listener.addr, align 8
  %listener_3 = getelementptr inbounds %"class.node::UDPWrapBase", ptr %this1, i32 0, i32 1
  store ptr %2, ptr %listener_3, align 8
  %listener_4 = getelementptr inbounds %"class.node::UDPWrapBase", ptr %this1, i32 0, i32 1
  %3 = load ptr, ptr %listener_4, align 8
  %cmp5 = icmp ne ptr %3, null
  br i1 %cmp5, label %if.then6, label %if.end18

if.then6:                                         ; preds = %if.end
  br label %do.body

do.body:                                          ; preds = %if.then6
  %listener_7 = getelementptr inbounds %"class.node::UDPWrapBase", ptr %this1, i32 0, i32 1
  %4 = load ptr, ptr %listener_7, align 8
  %wrap_8 = getelementptr inbounds %"class.node::UDPListener", ptr %4, i32 0, i32 1
  %5 = load ptr, ptr %wrap_8, align 8
  %cmp9 = icmp eq ptr %5, null
  %lnot = xor i1 %cmp9, true
  %lnot10 = xor i1 %lnot, true
  %lnot11 = xor i1 %lnot10, true
  br i1 %lnot11, label %if.then12, label %if.end14

if.then12:                                        ; preds = %do.body
  br label %do.body13

do.body13:                                        ; preds = %if.then12
  call void @_ZN4node6AssertERKNS_13AssertionInfoE(ptr noundef nonnull align 8 dereferenceable(24) @_ZZN4node11UDPWrapBase12set_listenerEPNS_11UDPListenerEE4args)
  call void @abort() #13
  unreachable

do.end:                                           ; No predecessors!
  br label %if.end14

if.end14:                                         ; preds = %do.end, %do.body
  br label %do.end15

do.end15:                                         ; preds = %if.end14
  %listener_16 = getelementptr inbounds %"class.node::UDPWrapBase", ptr %this1, i32 0, i32 1
  %6 = load ptr, ptr %listener_16, align 8
  %wrap_17 = getelementptr inbounds %"class.node::UDPListener", ptr %6, i32 0, i32 1
  store ptr %this1, ptr %wrap_17, align 8
  br label %if.end18

if.end18:                                         ; preds = %do.end15, %if.end
  ret void
}