; Function Attrs: mustprogress nounwind uwtable
define dso_local void @_ZN4node11UDPWrapBase12set_listenerEPNS_11UDPListenerE(ptr noundef nonnull align 8 dereferenceable(16) %this, ptr noundef %listener) local_unnamed_addr #3 align 2 {
entry:
  %listener_ = getelementptr inbounds i8, ptr %this, i64 8
  %0 = load ptr, ptr %listener_, align 8
  %cmp.not = icmp eq ptr %0, null
  br i1 %cmp.not, label %if.end, label %if.then

if.then:                                          ; preds = %entry
  %wrap_ = getelementptr inbounds i8, ptr %0, i64 8
  store ptr null, ptr %wrap_, align 8
  br label %if.end

if.end:                                           ; preds = %if.then, %entry
  store ptr %listener, ptr %listener_, align 8
  %cmp5.not = icmp eq ptr %listener, null
  br i1 %cmp5.not, label %if.end18, label %do.body

do.body:                                          ; preds = %if.end
  %wrap_8 = getelementptr inbounds i8, ptr %listener, i64 8
  %1 = load ptr, ptr %wrap_8, align 8
  %cmp9.not = icmp eq ptr %1, null
  br i1 %cmp9.not, label %do.end15, label %do.body13

do.body13:                                        ; preds = %do.body
  tail call void @_ZN4node6AssertERKNS_13AssertionInfoE(ptr noundef nonnull align 8 dereferenceable(24) @_ZZN4node11UDPWrapBase12set_listenerEPNS_11UDPListenerEE4args) #19
  tail call void @abort() #20
  unreachable

do.end15:                                         ; preds = %do.body
  store ptr %this, ptr %wrap_8, align 8
  br label %if.end18

if.end18:                                         ; preds = %do.end15, %if.end
  ret void
}